(dp0
S'Marin'
p1
S"(S'\\xd03\\xe2*\\xe3H\\xae\\xb5f\\x0f\\xc2\\x14\\n\\xec5\\x85\\x0cM\\xa9\\x97'\np0\n(lp1\ntp2\n."
p2
sS'Brandar'
p3
S"(S'\\x15\\x80\\xadU\\xa8\\x8f.\\xa7~\\xb6\\x1c\\xcb\\xfa\\xde0SHd\\xe4g'\np0\n(lp1\nccopy_reg\n_reconstructor\np2\n(cworld\nitem\np3\nc__builtin__\nobject\np4\nNtp5\nRp6\n(dp7\nS'short'\np8\nVA delicious cholocate chunk cookie sits here.\np9\nsS'capacity'\np10\nI0\nsS'name'\np11\nVa delicious chocolate chunk cookie\np12\nsS'location'\np13\nS''\np14\nsS'keywords'\np15\n(lp16\nVcookie\np17\nasS'desc'\np18\nVThe cookie has a delicious, gooey smell of freshly-baked\r\\u000adough.\np19\nsS'contents'\np20\n(lp21\nsS'description'\np22\ng14\nsbatp23\n."
p4
sS'Alpha'
p5
S"(S'u\\x05\\xd6JT\\xe0a\\xb7\\xac\\xd5L\\xcdX\\xb4\\x9d\\xc45\\x00\\xb65'\np0\n(lp1\ntp2\n."
p6
sS'Remyn'
p7
S"(S'\\xd03\\xe2*\\xe3H\\xae\\xb5f\\x0f\\xc2\\x14\\n\\xec5\\x85\\x0cM\\xa9\\x97'\np0\n(lp1\ntp2\n."
p8
sS'Kristar'
p9
S"(S'\\x1c  a\\xb8XHbZ\\xb5\\xa6\\xc7\\xdd\\x8bG\\xd2\\x8fj\\xc9o'\np0\n(lp1\nccopy_reg\n_reconstructor\np2\n(cworld\nitem\np3\nc__builtin__\nobject\np4\nNtp5\nRp6\n(dp7\nS'short'\np8\nVA delicious cholocate chunk cookie sits here.\np9\nsS'capacity'\np10\nI0\nsS'name'\np11\nVa delicious chocolate chunk cookie\np12\nsS'location'\np13\nS''\np14\nsS'keywords'\np15\n(lp16\nVcookie\np17\nasS'desc'\np18\nVThe cookie has a delicious, gooey smell of freshly-baked\r\\u000adough.\np19\nsS'contents'\np20\n(lp21\nsS'description'\np22\ng14\nsbag2\n(g3\ng4\nNtp23\nRp24\n(dp25\nS'short'\np26\nVA delicious cholocate chunk cookie sits here.\np27\nsS'capacity'\np28\nI0\nsS'name'\np29\nVa delicious chocolate chunk cookie\np30\nsS'location'\np31\ng14\nsS'keywords'\np32\n(lp33\nVcookie\np34\nasS'desc'\np35\nVThe cookie has a delicious, gooey smell of freshly-baked\r\\u000adough.\np36\nsS'contents'\np37\n(lp38\nsS'description'\np39\ng14\nsbatp40\n."
p10
s.