(dp0
S'Alpha'
p1
S"(S'\\xd03\\xe2*\\xe3H\\xae\\xb5f\\x0f\\xc2\\x14\\n\\xec5\\x85\\x0cM\\xa9\\x97'\np0\n(lp1\n(lp2\n(dp3\nS'discipline'\np4\nI3\nsS'agility'\np5\nI3\nsS'strength'\np6\nI3\nsS'intelligence'\np7\nI3\nsS'charisma'\np8\nI3\nsS'perception'\np9\nI3\nsI5\nS'Male'\np10\nS'Human'\np11\nI18\ntp12\n."
p2
sS'Brandar'
p3
S"(S'\\x15\\x80\\xadU\\xa8\\x8f.\\xa7~\\xb6\\x1c\\xcb\\xfa\\xde0SHd\\xe4g'\np0\n(lp1\n(lp2\n(dp3\nS'discipline'\np4\nI3\nsS'agility'\np5\nI3\nsS'strength'\np6\nI3\nsS'intelligence'\np7\nI3\nsS'charisma'\np8\nI3\nsS'perception'\np9\nI3\nsI5\nS'Male'\np10\nS'Human'\np11\nI18\ntp12\n."
p4
s.