(dp0
S'Marin'
p1
S"(S'\\xd03\\xe2*\\xe3H\\xae\\xb5f\\x0f\\xc2\\x14\\n\\xec5\\x85\\x0cM\\xa9\\x97'\np0\n(lp1\ntp2\n."
p2
sS'Brandar'
p3
S"(S'\\x15\\x80\\xadU\\xa8\\x8f.\\xa7~\\xb6\\x1c\\xcb\\xfa\\xde0SHd\\xe4g'\np0\n(lp1\nccopy_reg\n_reconstructor\np2\n(cworld\nitem\np3\nc__builtin__\nobject\np4\nNtp5\nRp6\n(dp7\nS'short'\np8\nVA delicious cholocate chunk cookie sits here.\np9\nsS'name'\np10\nVa delicious chocolate chunk cookie\np11\nsS'keywords'\np12\n(lp13\nVcookie\np14\naVchocolate\np15\naVtreat\np16\nasS'desc'\np17\nVThe cookie has a delicious, gooey smell of freshly-baked\r\\u000adough.\np18\nsS'location'\np19\nS''\np20\nsS'contents'\np21\n(lp22\nsS'description'\np23\ng20\nsbatp24\n."
p4
sS'Alpha'
p5
S"(S'u\\x05\\xd6JT\\xe0a\\xb7\\xac\\xd5L\\xcdX\\xb4\\x9d\\xc45\\x00\\xb65'\np0\n(lp1\ntp2\n."
p6
sS'Remyn'
p7
S"(S'\\xd03\\xe2*\\xe3H\\xae\\xb5f\\x0f\\xc2\\x14\\n\\xec5\\x85\\x0cM\\xa9\\x97'\np0\n(lp1\ntp2\n."
p8
sS'Kristar'
p9
S"(S'\\x1c  a\\xb8XHbZ\\xb5\\xa6\\xc7\\xdd\\x8bG\\xd2\\x8fj\\xc9o'\np0\n(lp1\ntp2\n."
p10
s.