(dp0
S'Marin'
p1
S"(S'\\xd03\\xe2*\\xe3H\\xae\\xb5f\\x0f\\xc2\\x14\\n\\xec5\\x85\\x0cM\\xa9\\x97'\np0\n(lp1\n(lp2\n(lp3\nccopy_reg\n_reconstructor\np4\n(cworld\nitem\np5\nc__builtin__\nobject\np6\nNtp7\nRp8\n(dp9\nS'_keywords'\np10\n(lp11\nS'spear'\np12\nasS'money'\np13\nI0\nsS'worn_position'\np14\nI0\nsS'ammo_type'\np15\nI0\nsS'protection'\np16\n(dp17\nsS'_short_multiple'\np18\nS''\np19\nsS'stackable'\np20\nI00\nsS'_desc'\np21\nS'A simple wooden spear with a pointed tip. Not much for\\r\\nornamentation but certainly enough to skewer an adversary\\r\\nat quite a distance.'\np22\nsS'contents'\np23\n(lp24\nsS'capacity'\np25\nI0\nsS'name'\np26\nS'a wooden spear'\np27\nsS'two_handed'\np28\nI00\nsS'absorption'\np29\n(dp30\nsS'max_quantity'\np31\nI1\nsS'strength_multiplier'\np32\nF0.0\nsS'damage'\np33\n(dp34\nI2\nF1.0\nssS'accuarcy_multiplier'\np35\nF1.0\nsS'location'\np36\ng19\nsS'_short'\np37\nS'a wooden spear lies here.'\np38\nsS'weapon_type'\np39\nI6\nsS'_quantity'\np40\nI1\nsba(dp41\nS'discipline'\np42\nI3\nsS'agility'\np43\nI3\nsS'strength'\np44\nI8\nsS'intelligence'\np45\nI3\nsS'charisma'\np46\nI3\nsS'perception'\np47\nI3\nsI0\nS'Male'\np48\nS'Human'\np49\nI21\n(lp50\nS'brawling'\np51\naS'lancer'\np52\na(dp53\nI10\ng51\nsI6\ng52\nsg52\ntp54\n."
p2
sS'Alden'
p3
S"(S'\\xd03\\xe2*\\xe3H\\xae\\xb5f\\x0f\\xc2\\x14\\n\\xec5\\x85\\x0cM\\xa9\\x97'\np0\n(lp1\n(lp2\n(lp3\n(dp4\nS'discipline'\np5\nI3\nsS'agility'\np6\nI3\nsS'strength'\np7\nI3\nsS'intelligence'\np8\nI3\nsS'charisma'\np9\nI3\nsS'perception'\np10\nI3\nsI5\nS'Male'\np11\nS'Human'\np12\nI18\n(lp13\nS'brawling'\np14\na(dp15\nI10\ng14\nsg14\ntp16\n."
p4
sS'Remyn'
p5
S"(S'5j\\x19+y\\x13\\xb0LTWM\\x18\\xc2\\x8dF\\xe69T(\\xab'\np0\n(lp1\nccopy_reg\n_reconstructor\np2\n(cworld\nitem\np3\nc__builtin__\nobject\np4\nNtp5\nRp6\n(dp7\nS'money'\np8\nI0\nsS'_keywords'\np9\n(lp10\nS'arrows'\np11\nasS'_short'\np12\nS'a crudely fashioned arrow lies here'\np13\nsS'damage'\np14\n(dp15\nI2\nF1.0\nssS'ammo_type'\np16\nI1\nsS'protection'\np17\n(dp18\nsS'stackable'\np19\nI01\nsS'contents'\np20\n(lp21\nsS'capacity'\np22\nI0\nsS'name'\np23\nS'a crudely fashioned arrow'\np24\nsS'two_handed'\np25\nI00\nsS'absorption'\np26\n(dp27\nsS'max_quantity'\np28\nI99\nsS'strength_multiplier'\np29\nF0.0\nsS'_desc'\np30\nS'The arrow looks crudely fashioned.'\np31\nsS'location'\np32\nS''\np33\nsS'_short_multiple'\np34\nS'some crudely fashioned arrows lie here'\np35\nsS'weapon_type'\np36\nI0\nsS'_quantity'\np37\nI4\nsS'worn_position'\np38\nI0\nsba(lp39\ng2\n(g3\ng4\nNtp40\nRp41\n(dp42\nS'_keywords'\np43\n(lp44\nS'shirt'\np45\naS'polo'\np46\nasS'_short'\np47\nS'A puffy blue polo shirt is here.'\np48\nsS'_desc'\np49\nS'The shirt looks only slightly worn and exceedingly puffy,\\r\\nbut otherwise is in good condition.'\np50\nsS'ammo_type'\np51\nI0\nsS'protection'\np52\n(dp53\nI3\nF0.12\nssS'_short_multiple'\np54\ng33\nsS'stackable'\np55\nI00\nsS'damage'\np56\n(dp57\nsS'contents'\np58\n(lp59\nsS'capacity'\np60\nI0\nsS'name'\np61\nS'a puffy blue polo shirt'\np62\nsS'two_handed'\np63\nI00\nsS'absorption'\np64\n(dp65\nI2\nI4\nssS'max_quantity'\np66\nI1\nsS'strength_multiplier'\np67\nF0.0\nsS'worn_position'\np68\nI3\nsS'accuarcy_multiplier'\np69\nF1.0\nsS'location'\np70\ng33\nsS'money'\np71\nI0\nsS'weapon_type'\np72\nI0\nsS'_quantity'\np73\nI1\nsba(lp74\ng2\n(g3\ng4\nNtp75\nRp76\n(dp77\nS'_keywords'\np78\n(lp79\nS'longbow'\np80\nasS'_short'\np81\nS'a simple longbow lies here'\np82\nsS'_desc'\np83\nS'The longbow is created out of a non-specific wood, and is\\r\\ntied together rather plainly.'\np84\nsS'ammo_type'\np85\nI0\nsS'protection'\np86\n(dp87\nsS'_short_multiple'\np88\ng33\nsS'stackable'\np89\nI00\nsS'contents'\np90\n(lp91\nsS'capacity'\np92\nI0\nsS'name'\np93\nS'a simple longbow'\np94\nsS'two_handed'\np95\nI00\nsS'absorption'\np96\n(dp97\nsS'max_quantity'\np98\nI1\nsS'strength_multiplier'\np99\nF0.0\nsS'damage'\np100\n(dp101\nsS'location'\np102\ng33\nsS'money'\np103\nI0\nsS'weapon_type'\np104\nI3\nsS'_quantity'\np105\nI1\nsS'worn_position'\np106\nI0\nsbag2\n(g3\ng4\nNtp107\nRp108\n(dp109\ng9\ng10\nsg12\ng13\nsg14\ng15\nsg16\nI1\nsg17\ng18\nsg34\ng35\nsg19\nI01\nsg30\ng31\nsg20\ng21\nsg22\nI0\nsg23\ng24\nsg25\nI00\nsg26\ng27\nsg28\nI99\nsg29\nF0.0\nsg38\nI0\nsg32\ng33\nsg8\nI0\nsg36\nI0\nsg37\nI23\nsba(dp110\nS'discipline'\np111\nI3\nsS'agility'\np112\nI5\nsS'strength'\np113\nI3\nsS'intelligence'\np114\nI6\nsS'charisma'\np115\nI3\nsS'perception'\np116\nI3\nsI0\nS'Male'\np117\nS'Human'\np118\nI3\n(lp119\nS'brawling'\np120\naS'doppelsoldner'\np121\naS'butcher'\np122\naS'jiujitsu'\np123\naS'lancer'\np124\naS'yeoman'\np125\na(dp126\nI8\ng121\nsI10\ng123\nsI3\ng125\nsI5\ng122\nsI6\ng124\nsg125\ntp127\n."
p6
s.