(dp0
S'Marin'
p1
S"(S'\\xd03\\xe2*\\xe3H\\xae\\xb5f\\x0f\\xc2\\x14\\n\\xec5\\x85\\x0cM\\xa9\\x97'\np0\n(lp1\n(lp2\n(lp3\nccopy_reg\n_reconstructor\np4\n(cworld\nitem\np5\nc__builtin__\nobject\np6\nNtp7\nRp8\n(dp9\nS'short'\np10\nVa gleaming longsword is here.\np11\nsS'capacity'\np12\nI0\nsS'name'\np13\nVa gleaming longsword\np14\nsS'worn'\np15\nI0\nsS'weapon_type'\np16\nI1\nsS'location'\np17\nS''\np18\nsS'keywords'\np19\n(lp20\nVlongsword\np21\nasS'contents'\np22\n(lp23\nsS'desc'\np24\nVThe longsword gleams from a fresh polish.\np25\nsba(dp26\nS'discipline'\np27\nI3\nsS'agility'\np28\nI3\nsS'strength'\np29\nI3\nsS'intelligence'\np30\nI3\nsS'charisma'\np31\nI3\nsS'perception'\np32\nI3\nsI5\nS'Male'\np33\nS'Human'\np34\nI18\ntp35\n."
p2
sS'Alpha'
p3
S"(S'u\\x05\\xd6JT\\xe0a\\xb7\\xac\\xd5L\\xcdX\\xb4\\x9d\\xc45\\x00\\xb65'\np0\n(lp1\nccopy_reg\n_reconstructor\np2\n(cworld\nitem\np3\nc__builtin__\nobject\np4\nNtp5\nRp6\n(dp7\nS'short'\np8\nVa gleaming longsword is here.\np9\nsS'capacity'\np10\nI0\nsS'name'\np11\nVa gleaming longsword\np12\nsS'worn'\np13\nI0\nsS'weapon_type'\np14\n(ixml.dom.minidom\nAttr\np15\n(dp16\nS'ownerDocument'\np17\n(ixml.dom.minidom\nDocument\np18\n(dp19\nS'childNodes'\np20\ng2\n(cxml.dom.minicompat\nNodeList\np21\nc__builtin__\nlist\np22\n(lp23\n(ixml.dom.minidom\nElement\np24\n(dp25\ng17\ng18\nsS'nodeName'\np26\nVarea\np27\nsS'nextSibling'\np28\nNsS'parentNode'\np29\ng18\nsS'namespaceURI'\np30\nNsS'prefix'\np31\nNsS'_attrsNS'\np32\n(dp33\nsS'tagName'\np34\ng27\nsg20\ng2\n(g21\ng22\n(lp35\ntp36\nRp37\nsS'_attrs'\np38\n(dp39\nsbatp40\nRp41\n(lp42\ng24\nabsS'_id_search_stack'\np43\nNsS'implementation'\np44\n(ixml.dom.minidom\nDOMImplementation\np45\n(dp46\nbsS'_elem_info'\np47\n(dp48\nsS'doctype'\np49\nNsS'_id_cache'\np50\n(dp51\nsbsg26\nVtype\np52\nsS'ownerElement'\np53\n(ixml.dom.minidom\nElement\np54\n(dp55\ng17\ng18\nsg26\nVweapon\np56\nsg28\n(ixml.dom.minidom\nText\np57\n(dp58\nS'previousSibling'\np59\ng54\nsg29\n(ixml.dom.minidom\nElement\np60\n(dp61\ng17\ng18\nsg26\nVitem\np62\nsg30\nNsg31\nNsg32\n(dp63\n(NVid\np64\ntp65\n(ixml.dom.minidom\nAttr\np66\n(dp67\ng17\ng18\nsg26\nVid\np68\nsg53\ng60\nsS'value'\np69\nVlongsword\np70\nsg30\nNsg31\nNsS'nodeValue'\np71\ng70\nsg20\ng2\n(g21\ng22\n(lp72\n(ixml.dom.minidom\nText\np73\n(dp74\nS'data'\np75\ng70\nsg71\ng70\nsbatp76\nRp77\n(lp78\ng73\nabsg11\ng68\nsbssg34\ng62\nsg20\ng2\n(g21\ng22\n(lp79\n(ixml.dom.minidom\nText\np80\n(dp81\ng59\nNsg29\ng60\nsg28\n(ixml.dom.minidom\nElement\np82\n(dp83\ng17\ng18\nsg26\nVname\np84\nsg28\n(ixml.dom.minidom\nText\np85\n(dp86\ng59\ng82\nsg29\ng60\nsg28\n(ixml.dom.minidom\nElement\np87\n(dp88\ng17\ng18\nsg26\nVkeywords\np89\nsg28\n(ixml.dom.minidom\nText\np90\n(dp91\ng59\ng87\nsg29\ng60\nsg28\n(ixml.dom.minidom\nElement\np92\n(dp93\ng17\ng18\nsg26\nVshort\np94\nsg28\n(ixml.dom.minidom\nText\np95\n(dp96\ng59\ng92\nsg29\ng60\nsg28\ng54\nsg17\ng18\nsg75\nV\\u000a  \t\np97\nsg71\nV\\u000a  \t\np98\nsbsg29\ng60\nsg30\nNsg31\nNsg32\n(dp99\nsg34\ng94\nsg20\ng2\n(g21\ng22\n(lp100\n(ixml.dom.minidom\nText\np101\n(dp102\ng59\nNsg29\ng92\nsg28\nNsg17\ng18\nsg75\ng9\nsg71\ng9\nsbatp103\nRp104\n(lp105\ng101\nabsg59\ng90\nsg38\n(dp106\nsbsg17\ng18\nsg75\nV\\u000a  \t\np107\nsg71\nV\\u000a  \t\np108\nsbsg29\ng60\nsg30\nNsg31\nNsg32\n(dp109\nsg34\ng89\nsg20\ng2\n(g21\ng22\n(lp110\n(ixml.dom.minidom\nText\np111\n(dp112\ng59\nNsg29\ng87\nsg28\nNsg17\ng18\nsg75\nVlongsword\np113\nsg71\ng113\nsbatp114\nRp115\n(lp116\ng111\nabsg59\ng85\nsg38\n(dp117\nsbsg17\ng18\nsg75\nV\\u000a  \t\np118\nsg71\nV\\u000a  \t\np119\nsbsg29\ng60\nsg30\nNsg31\nNsg32\n(dp120\nsg34\ng84\nsg20\ng2\n(g21\ng22\n(lp121\n(ixml.dom.minidom\nText\np122\n(dp123\ng59\nNsg29\ng82\nsg28\nNsg17\ng18\nsg75\nV a gleaming longsword\np124\nsg71\ng124\nsbatp125\nRp126\n(lp127\ng122\nabsg59\ng80\nsg38\n(dp128\nsbsg17\ng18\nsg75\nV\\u000a  \t\np129\nsg71\nV\\u000a  \t\np130\nsbag82\nag85\nag87\nag90\nag92\nag95\nag54\nag57\na(ixml.dom.minidom\nElement\np131\n(dp132\ng17\ng18\nsg26\nVdesc\np133\nsg28\n(ixml.dom.minidom\nText\np134\n(dp135\ng59\ng131\nsg29\ng60\nsg28\nNsg17\ng18\nsg75\nV  \t\\u000a  \t\np136\nsg71\nV  \t\\u000a  \t\np137\nsbsg29\ng60\nsg30\nNsg31\nNsg32\n(dp138\nsg34\ng133\nsg20\ng2\n(g21\ng22\n(lp139\n(ixml.dom.minidom\nText\np140\n(dp141\ng59\nNsg29\ng131\nsg28\nNsg17\ng18\nsg75\nV\\u000a\tThe longsword gleams from a fresh polish.\\u000a\t\np142\nsg71\nV\\u000a\tThe longsword gleams from a fresh polish.\\u000a\t\np143\nsbatp144\nRp145\n(lp146\ng140\nabsg59\ng57\nsg38\n(dp147\nsbag134\natp148\nRp149\n(lp150\ng80\nag82\nag85\nag87\nag90\nag92\nag95\nag54\nag57\nag131\nag134\nabsg38\n(dp151\ng68\ng66\nssbsg28\ng131\nsg17\ng18\nsg75\nV\\u000a\t\np152\nsg71\nV\\u000a\t\np153\nsbsg29\ng60\nsg30\nNsg31\nNsg32\n(dp154\n(NVtype\np155\ntp156\ng15\nssg34\ng56\nsg20\ng2\n(g21\ng22\n(lp157\ntp158\nRp159\nsg59\ng95\nsg38\n(dp160\ng52\ng15\nssbsg69\nVsword\np161\nsg30\nNsg31\nNsg71\ng161\nsg20\ng2\n(g21\ng22\n(lp162\n(ixml.dom.minidom\nText\np163\n(dp164\ng75\ng161\nsg71\ng161\nsbatp165\nRp166\n(lp167\ng163\nabsg11\ng52\nsbsS'location'\np168\nS''\np169\nsS'keywords'\np170\n(lp171\nVlongsword\np172\nasS'contents'\np173\n(lp174\nsS'desc'\np175\nVThe longsword gleams from a fresh polish.\np176\nsba(lp177\n(lp178\n(dp179\nS'discipline'\np180\nI3\nsS'agility'\np181\nI3\nsS'strength'\np182\nI3\nsS'intelligence'\np183\nI3\nsS'charisma'\np184\nI3\nsS'perception'\np185\nI3\nsI5\nS'Male'\np186\nS'Human'\np187\nI18\ntp188\n."
p4
sS'Remyn'
p5
S"(S'\\xd03\\xe2*\\xe3H\\xae\\xb5f\\x0f\\xc2\\x14\\n\\xec5\\x85\\x0cM\\xa9\\x97'\np0\n(lp1\n(lp2\n(lp3\nccopy_reg\n_reconstructor\np4\n(cworld\nitem\np5\nc__builtin__\nobject\np6\nNtp7\nRp8\n(dp9\nS'short'\np10\nVOccam's razor lies here.\np11\nsS'capacity'\np12\nI0\nsS'name'\np13\nVOccam's razor\np14\nsS'worn'\np15\nI0\nsS'weapon_type'\np16\nI4\nsS'location'\np17\nS''\np18\nsS'keywords'\np19\n(lp20\nVrazor\np21\nasS'contents'\np22\n(lp23\nsS'desc'\np24\nVYou think it may be an axiom that governs the chances of a\r\\u000acomplex theory over a simpler one, but its probably just a\r\\u000agood weapon for giving an adversary an extremely close\r\\u000ashave.\np25\nsba(dp26\nS'discipline'\np27\nI3\nsS'agility'\np28\nI3\nsS'strength'\np29\nI4\nsS'intelligence'\np30\nI3\nsS'charisma'\np31\nI3\nsS'perception'\np32\nI3\nsI4\nS'Male'\np33\nS'Human'\np34\nI18\ntp35\n."
p6
sS'Brandar'
p7
S"(S'\\x15\\x80\\xadU\\xa8\\x8f.\\xa7~\\xb6\\x1c\\xcb\\xfa\\xde0SHd\\xe4g'\np0\n(lp1\n(lp2\n(lp3\n(dp4\nS'discipline'\np5\nI3\nsS'agility'\np6\nI3\nsS'strength'\np7\nI3\nsS'intelligence'\np8\nI3\nsS'charisma'\np9\nI3\nsS'perception'\np10\nI3\nsI5\nS'Male'\np11\nS'Wyvernfolk'\np12\nI18\ntp13\n."
p8
s.