(dp0
S'Remyn'
p1
S"(S'5j\\x19+y\\x13\\xb0LTWM\\x18\\xc2\\x8dF\\xe69T(\\xab'\np0\n(lp1\n(lp2\n(lp3\n(dp4\nS'discipline'\np5\nI3\nsS'agility'\np6\nI3\nsS'strength'\np7\nI3\nsS'intelligence'\np8\nI6\nsS'charisma'\np9\nI3\nsS'perception'\np10\nI3\nsI2\nS'Male'\np11\nS'Human'\np12\nI18\n(lp13\nS'brawling'\np14\naS'doppelsoldner'\np15\naS'butcher'\np16\naS'jiujitsu'\np17\na(dp18\nI8\ng15\nsI10\ng17\nsI5\ng16\nsg14\ntp19\n."
p2
s.